target datalayout = "e-m:e-p270:32:32-p271:32:32-p272:64:64-i64:64-i128:128-f80:128-n8:16:32:64-S128"
target triple = "x86_64-pc-linux-gnu"

@inap_handle = internal global ptr null, align 8

; Function Attrs: null_pointer_is_valid sspstrong uwtable
define internal void @range_add_callback(i32 noundef %0, ptr noundef %1) #0 {
  %3 = alloca i32, align 4
  %4 = alloca ptr, align 8
  store i32 %0, ptr %3, align 4
  store ptr %1, ptr %4, align 8
  %5 = load i32, ptr %3, align 4
  %6 = icmp ne i32 %5, 0
  br i1 %6, label %7, label %10

7:                                                ; preds = %2
  %8 = load i32, ptr %3, align 4
  %9 = load ptr, ptr @inap_handle, align 8
  call void @add_itu_tcap_subdissector(i32 noundef %8, ptr noundef %9)
  br label %10

10:                                               ; preds = %7, %2
  ret void
}